; Function Attrs: mustprogress nounwind uwtable
define void @_ZN7glslang7TShader22setShiftSamplerBindingEj(ptr noundef nonnull readonly align 8 captures(none) dereferenceable(165) %0, i32 noundef %1) local_unnamed_addr #3 align 2 {
  %3 = alloca %"class.std::__cxx11::basic_string", align 8
  %4 = getelementptr inbounds nuw i8, ptr %0, i64 32
  %5 = load ptr, ptr %4, align 8
  %6 = getelementptr inbounds nuw i8, ptr %5, i64 892
  store i32 %1, ptr %6, align 4
  %7 = tail call noundef ptr @_ZN7glslang13TIntermediate15getResourceNameENS_13TResourceTypeE(i32 noundef 0) #24
  %.not.i.i = icmp eq ptr %7, null
  %.not.i.i.i = icmp eq i32 %1, 0
  %or.cond.i.i = or i1 %.not.i.i.i, %.not.i.i
  br i1 %or.cond.i.i, label %_ZN7glslang7TShader15setShiftBindingENS_13TResourceTypeEj.exit, label %8

8:                                                ; preds = %2
  %9 = getelementptr inbounds nuw i8, ptr %5, i64 2000
  tail call void @_ZN7glslang10TProcesses10addProcessEPKc(ptr noundef nonnull align 8 dereferenceable(24) %9, ptr noundef nonnull %7)
  call void @llvm.lifetime.start.p0(i64 32, ptr nonnull %3)
  %10 = getelementptr inbounds nuw i8, ptr %5, i64 2008
  %11 = load ptr, ptr %10, align 8
  %12 = getelementptr inbounds i8, ptr %11, i64 -32
  %13 = tail call noundef nonnull align 8 dereferenceable(32) ptr @_ZNSt7__cxx1112basic_stringIcSt11char_traitsIcESaIcEE6appendEPKc(ptr noundef nonnull align 8 dereferenceable(32) %12, ptr noundef nonnull @.str.47) #24
  call void @_ZNSt7__cxx119to_stringEi(ptr dead_on_unwind nonnull writable sret(%"class.std::__cxx11::basic_string") align 8 %3, i32 noundef %1) #24
  %14 = load ptr, ptr %10, align 8
  %15 = getelementptr inbounds i8, ptr %14, i64 -32
  %16 = call noundef nonnull align 8 dereferenceable(32) ptr @_ZNSt7__cxx1112basic_stringIcSt11char_traitsIcESaIcEE6appendERKS4_(ptr noundef nonnull align 8 dereferenceable(32) %15, ptr noundef nonnull align 8 dereferenceable(32) %3) #24
  call void @_ZNSt7__cxx1112basic_stringIcSt11char_traitsIcESaIcEED1Ev(ptr noundef nonnull align 8 dereferenceable(32) %3) #24
  call void @llvm.lifetime.end.p0(i64 32, ptr nonnull %3)
  br label %_ZN7glslang7TShader15setShiftBindingENS_13TResourceTypeEj.exit

_ZN7glslang7TShader15setShiftBindingENS_13TResourceTypeEj.exit: ; preds = %2, %8
  ret void
}